target datalayout = "e-m:e-p270:32:32-p271:32:32-p272:64:64-i64:64-i128:128-f80:128-n8:16:32:64-S128"
target triple = "x86_64-pc-linux-gnu"

%"class.casadi::Sparsity" = type { %"class.casadi::SharedObject" }
%"class.casadi::SharedObject" = type { %"class.casadi::GenericShared" }
%"class.casadi::GenericShared" = type { ptr }
%"class.casadi::MXNode" = type { %"class.casadi::SharedObjectInternal", i64, %"class.std::vector", %"class.casadi::Sparsity" }
%"class.casadi::SharedObjectInternal" = type { %"class.casadi::GenericSharedInternal", i64 }
%"class.casadi::GenericSharedInternal" = type { ptr, ptr }
%"class.std::vector" = type { %"struct.std::_Vector_base" }
%"struct.std::_Vector_base" = type { %"struct.std::_Vector_base<casadi::MX, std::allocator<casadi::MX>>::_Vector_impl" }
%"struct.std::_Vector_base<casadi::MX, std::allocator<casadi::MX>>::_Vector_impl" = type { %"struct.std::_Vector_base<casadi::MX, std::allocator<casadi::MX>>::_Vector_impl_data" }
%"struct.std::_Vector_base<casadi::MX, std::allocator<casadi::MX>>::_Vector_impl_data" = type { ptr, ptr, ptr }
%"class.casadi::HorzRepsum" = type { %"class.casadi::MXNode", i64 }

; Function Attrs: inlinehint mustprogress uwtable
define linkonce_odr noundef ptr @_ZSt10__fill_n_aIPyxiET_S1_T0_RKT1_St26random_access_iterator_tag(ptr noundef %0, i64 noundef %1, ptr noundef nonnull align 4 dereferenceable(4) %2) #6 comdat {
  %4 = alloca ptr, align 8
  %5 = alloca ptr, align 8
  %6 = alloca i64, align 8
  %7 = alloca ptr, align 8
  store ptr %0, ptr %5, align 8, !tbaa !46
  store i64 %1, ptr %6, align 8, !tbaa !10
  store ptr %2, ptr %7, align 8, !tbaa !72
  %8 = load i64, ptr %6, align 8, !tbaa !10
  %9 = icmp sle i64 %8, 0
  br i1 %9, label %10, label %12

10:                                               ; preds = %3
  %11 = load ptr, ptr %5, align 8, !tbaa !46
  store ptr %11, ptr %4, align 8
  br label %21

12:                                               ; preds = %3
  %13 = load ptr, ptr %5, align 8, !tbaa !46
  %14 = load ptr, ptr %5, align 8, !tbaa !46
  %15 = load i64, ptr %6, align 8, !tbaa !10
  %16 = getelementptr inbounds i64, ptr %14, i64 %15
  %17 = load ptr, ptr %7, align 8, !tbaa !72
  call void @_ZSt8__fill_aIPyiEvT_S1_RKT0_(ptr noundef %13, ptr noundef %16, ptr noundef nonnull align 4 dereferenceable(4) %17)
  %18 = load ptr, ptr %5, align 8, !tbaa !46
  %19 = load i64, ptr %6, align 8, !tbaa !10
  %20 = getelementptr inbounds i64, ptr %18, i64 %19
  store ptr %20, ptr %4, align 8
  br label %21

21:                                               ; preds = %12, %10
  %22 = load ptr, ptr %4, align 8
  ret ptr %22
}

; Function Attrs: inlinehint mustprogress nounwind uwtable
define linkonce_odr void @_ZSt19__iterator_categoryIPyENSt15iterator_traitsIT_E17iterator_categoryERKS2_(ptr noundef nonnull align 8 dereferenceable(8) %0) #8 comdat {
  %2 = alloca ptr, align 8
  store ptr %0, ptr %2, align 8, !tbaa !60
  ret void
}

; Function Attrs: inlinehint mustprogress nounwind uwtable
define linkonce_odr noundef i64 @_ZSt17__size_to_integerx(i64 noundef %0) #8 comdat {
  %2 = alloca i64, align 8
  store i64 %0, ptr %2, align 8, !tbaa !10
  %3 = load i64, ptr %2, align 8, !tbaa !10
  ret i64 %3
}

; Function Attrs: inlinehint mustprogress nounwind uwtable
define linkonce_odr void @_ZSt9__fill_a1IPyiEN9__gnu_cxx11__enable_ifIXsr11__is_scalarIT0_EE7__valueEvE6__typeET_S6_RKS3_(ptr noundef %0, ptr noundef %1, ptr noundef nonnull align 4 dereferenceable(4) %2) #8 comdat {
  %4 = alloca ptr, align 8
  %5 = alloca ptr, align 8
  %6 = alloca ptr, align 8
  %7 = alloca i32, align 4
  store ptr %0, ptr %4, align 8, !tbaa !46
  store ptr %1, ptr %5, align 8, !tbaa !46
  store ptr %2, ptr %6, align 8, !tbaa !72
  call void @llvm.lifetime.start.p0(i64 4, ptr %7) #3
  %8 = load ptr, ptr %6, align 8, !tbaa !72
  %9 = load i32, ptr %8, align 4, !tbaa !64
  store i32 %9, ptr %7, align 4, !tbaa !64
  br label %10

10:                                               ; preds = %18, %3
  %11 = load ptr, ptr %4, align 8, !tbaa !46
  %12 = load ptr, ptr %5, align 8, !tbaa !46
  %13 = icmp ne ptr %11, %12
  br i1 %13, label %14, label %21

14:                                               ; preds = %10
  %15 = load i32, ptr %7, align 4, !tbaa !64
  %16 = sext i32 %15 to i64
  %17 = load ptr, ptr %4, align 8, !tbaa !46
  store i64 %16, ptr %17, align 8, !tbaa !10
  br label %18

18:                                               ; preds = %14
  %19 = load ptr, ptr %4, align 8, !tbaa !46
  %20 = getelementptr inbounds nuw i64, ptr %19, i32 1
  store ptr %20, ptr %4, align 8, !tbaa !46
  br label %10, !llvm.loop !261

21:                                               ; preds = %10
  call void @llvm.lifetime.end.p0(i64 4, ptr %7) #3
  ret void
}

; Function Attrs: mustprogress uwtable
define linkonce_odr noundef ptr @_ZSt9transformIPKyPyS2_PFyyyEET1_T_S6_T0_S5_T2_(ptr noundef %0, ptr noundef %1, ptr noundef %2, ptr noundef %3, ptr noundef %4) #4 comdat {
  %6 = alloca ptr, align 8
  %7 = alloca ptr, align 8
  %8 = alloca ptr, align 8
  %9 = alloca ptr, align 8
  %10 = alloca ptr, align 8
  store ptr %0, ptr %6, align 8, !tbaa !46
  store ptr %1, ptr %7, align 8, !tbaa !46
  store ptr %2, ptr %8, align 8, !tbaa !46
  store ptr %3, ptr %9, align 8, !tbaa !46
  store ptr %4, ptr %10, align 8, !tbaa !70
  br label %11

11:                                               ; preds = %23, %5
  %12 = load ptr, ptr %6, align 8, !tbaa !46
  %13 = load ptr, ptr %7, align 8, !tbaa !46
  %14 = icmp ne ptr %12, %13
  br i1 %14, label %15, label %30

15:                                               ; preds = %11
  %16 = load ptr, ptr %10, align 8, !tbaa !70
  %17 = load ptr, ptr %6, align 8, !tbaa !46
  %18 = load i64, ptr %17, align 8, !tbaa !10
  %19 = load ptr, ptr %8, align 8, !tbaa !46
  %20 = load i64, ptr %19, align 8, !tbaa !10
  %21 = call noundef i64 %16(i64 noundef %18, i64 noundef %20)
  %22 = load ptr, ptr %9, align 8, !tbaa !46
  store i64 %21, ptr %22, align 8, !tbaa !10
  br label %23

23:                                               ; preds = %15
  %24 = load ptr, ptr %6, align 8, !tbaa !46
  %25 = getelementptr inbounds nuw i64, ptr %24, i32 1
  store ptr %25, ptr %6, align 8, !tbaa !46
  %26 = load ptr, ptr %8, align 8, !tbaa !46
  %27 = getelementptr inbounds nuw i64, ptr %26, i32 1
  store ptr %27, ptr %8, align 8, !tbaa !46
  %28 = load ptr, ptr %9, align 8, !tbaa !46
  %29 = getelementptr inbounds nuw i64, ptr %28, i32 1
  store ptr %29, ptr %9, align 8, !tbaa !46
  br label %11, !llvm.loop !294

30:                                               ; preds = %11
  %31 = load ptr, ptr %9, align 8, !tbaa !46
  ret ptr %31
}

; Function Attrs: inlinehint mustprogress uwtable
define linkonce_odr noundef ptr @_ZSt6fill_nIPyxiET_S1_T0_RKT1_(ptr noundef %0, i64 noundef %1, ptr noundef nonnull align 4 dereferenceable(4) %2) #6 comdat {
  %4 = alloca ptr, align 8
  %5 = alloca i64, align 8
  %6 = alloca ptr, align 8
  store ptr %0, ptr %4, align 8, !tbaa !46
  store i64 %1, ptr %5, align 8, !tbaa !10
  store ptr %2, ptr %6, align 8, !tbaa !72
  %7 = load ptr, ptr %4, align 8, !tbaa !46
  %8 = load i64, ptr %5, align 8, !tbaa !10
  %9 = call noundef i64 @_ZSt17__size_to_integerx(i64 noundef %8)
  %10 = load ptr, ptr %6, align 8, !tbaa !72
  call void @_ZSt19__iterator_categoryIPyENSt15iterator_traitsIT_E17iterator_categoryERKS2_(ptr noundef nonnull align 8 dereferenceable(8) %4)
  %11 = call noundef ptr @_ZSt10__fill_n_aIPyxiET_S1_T0_RKT1_St26random_access_iterator_tag(ptr noundef %7, i64 noundef %9, ptr noundef nonnull align 4 dereferenceable(4) %10)
  ret ptr %11
}

; Function Attrs: inlinehint mustprogress uwtable
define linkonce_odr void @_ZSt8__fill_aIPyiEvT_S1_RKT0_(ptr noundef %0, ptr noundef %1, ptr noundef nonnull align 4 dereferenceable(4) %2) #6 comdat {
  %4 = alloca ptr, align 8
  %5 = alloca ptr, align 8
  %6 = alloca ptr, align 8
  store ptr %0, ptr %4, align 8, !tbaa !46
  store ptr %1, ptr %5, align 8, !tbaa !46
  store ptr %2, ptr %6, align 8, !tbaa !72
  %7 = load ptr, ptr %4, align 8, !tbaa !46
  %8 = load ptr, ptr %5, align 8, !tbaa !46
  %9 = load ptr, ptr %6, align 8, !tbaa !72
  call void @_ZSt9__fill_a1IPyiEN9__gnu_cxx11__enable_ifIXsr11__is_scalarIT0_EE7__valueEvE6__typeET_S6_RKS3_(ptr noundef %7, ptr noundef %8, ptr noundef nonnull align 4 dereferenceable(4) %9)
  ret void
}

; Function Attrs: mustprogress uwtable
define linkonce_odr noundef i32 @_ZNK6casadi10HorzRepsum8eval_genIyPFyyyEEEiPPKT_PPS4_PxS8_T0_(ptr noundef nonnull align 8 dereferenceable(72) %0, ptr noundef %1, ptr noundef %2, ptr noundef %3, ptr noundef %4, ptr noundef %5) #4 comdat align 2 {
  %7 = alloca ptr, align 8
  %8 = alloca ptr, align 8
  %9 = alloca ptr, align 8
  %10 = alloca ptr, align 8
  %11 = alloca ptr, align 8
  %12 = alloca ptr, align 8
  %13 = alloca i64, align 8
  %14 = alloca i32, align 4
  %15 = alloca i64, align 8
  store ptr %0, ptr %7, align 8, !tbaa !99
  store ptr %1, ptr %8, align 8, !tbaa !60
  store ptr %2, ptr %9, align 8, !tbaa !60
  store ptr %3, ptr %10, align 8, !tbaa !46
  store ptr %4, ptr %11, align 8, !tbaa !46
  store ptr %5, ptr %12, align 8, !tbaa !70
  %16 = load ptr, ptr %7, align 8
  call void @llvm.lifetime.start.p0(i64 8, ptr %13) #3
  %17 = call noundef nonnull align 8 dereferenceable(8) ptr @_ZNK6casadi6MXNode8sparsityEv(ptr noundef nonnull align 8 dereferenceable(64) %16)
  %18 = call noundef i64 @_ZNK6casadi8Sparsity3nnzEv(ptr noundef nonnull align 8 dereferenceable(8) %17)
  store i64 %18, ptr %13, align 8, !tbaa !10
  %19 = load ptr, ptr %9, align 8, !tbaa !60
  %20 = getelementptr inbounds ptr, ptr %19, i64 0
  %21 = load ptr, ptr %20, align 8, !tbaa !46
  %22 = load i64, ptr %13, align 8, !tbaa !10
  call void @llvm.lifetime.start.p0(i64 4, ptr %14) #3
  store i32 0, ptr %14, align 4, !tbaa !64
  %23 = call noundef ptr @_ZSt6fill_nIPyxiET_S1_T0_RKT1_(ptr noundef %21, i64 noundef %22, ptr noundef nonnull align 4 dereferenceable(4) %14)
  call void @llvm.lifetime.end.p0(i64 4, ptr %14) #3
  call void @llvm.lifetime.start.p0(i64 8, ptr %15) #3
  store i64 0, ptr %15, align 8, !tbaa !10
  br label %24

24:                                               ; preds = %54, %6
  %25 = load i64, ptr %15, align 8, !tbaa !10
  %26 = getelementptr inbounds nuw %"class.casadi::HorzRepsum", ptr %16, i32 0, i32 1
  %27 = load i64, ptr %26, align 8, !tbaa !101
  %28 = icmp slt i64 %25, %27
  br i1 %28, label %30, label %29

29:                                               ; preds = %24
  call void @llvm.lifetime.end.p0(i64 8, ptr %15) #3
  br label %57

30:                                               ; preds = %24
  %31 = load ptr, ptr %8, align 8, !tbaa !60
  %32 = getelementptr inbounds ptr, ptr %31, i64 0
  %33 = load ptr, ptr %32, align 8, !tbaa !46
  %34 = load i64, ptr %15, align 8, !tbaa !10
  %35 = load i64, ptr %13, align 8, !tbaa !10
  %36 = mul nsw i64 %34, %35
  %37 = getelementptr inbounds i64, ptr %33, i64 %36
  %38 = load ptr, ptr %8, align 8, !tbaa !60
  %39 = getelementptr inbounds ptr, ptr %38, i64 0
  %40 = load ptr, ptr %39, align 8, !tbaa !46
  %41 = load i64, ptr %15, align 8, !tbaa !10
  %42 = add nsw i64 %41, 1
  %43 = load i64, ptr %13, align 8, !tbaa !10
  %44 = mul nsw i64 %42, %43
  %45 = getelementptr inbounds i64, ptr %40, i64 %44
  %46 = load ptr, ptr %9, align 8, !tbaa !60
  %47 = getelementptr inbounds ptr, ptr %46, i64 0
  %48 = load ptr, ptr %47, align 8, !tbaa !46
  %49 = load ptr, ptr %9, align 8, !tbaa !60
  %50 = getelementptr inbounds ptr, ptr %49, i64 0
  %51 = load ptr, ptr %50, align 8, !tbaa !46
  %52 = load ptr, ptr %12, align 8, !tbaa !70
  %53 = call noundef ptr @_ZSt9transformIPKyPyS2_PFyyyEET1_T_S6_T0_S5_T2_(ptr noundef %37, ptr noundef %45, ptr noundef %48, ptr noundef %51, ptr noundef %52)
  br label %54

54:                                               ; preds = %30
  %55 = load i64, ptr %15, align 8, !tbaa !10
  %56 = add nsw i64 %55, 1
  store i64 %56, ptr %15, align 8, !tbaa !10
  br label %24, !llvm.loop !116

57:                                               ; preds = %29
  call void @llvm.lifetime.end.p0(i64 8, ptr %13) #3
  ret i32 0
}

; Function Attrs: inlinehint mustprogress uwtable
define linkonce_odr void @_ZSt4fillIPyiEvT_S1_RKT0_(ptr noundef %0, ptr noundef %1, ptr noundef nonnull align 4 dereferenceable(4) %2) #6 comdat {
  %4 = alloca ptr, align 8
  %5 = alloca ptr, align 8
  %6 = alloca ptr, align 8
  store ptr %0, ptr %4, align 8, !tbaa !46
  store ptr %1, ptr %5, align 8, !tbaa !46
  store ptr %2, ptr %6, align 8, !tbaa !72
  %7 = load ptr, ptr %4, align 8, !tbaa !46
  %8 = load ptr, ptr %5, align 8, !tbaa !46
  %9 = load ptr, ptr %6, align 8, !tbaa !72
  call void @_ZSt8__fill_aIPyiEvT_S1_RKT0_(ptr noundef %7, ptr noundef %8, ptr noundef nonnull align 4 dereferenceable(4) %9)
  ret void
}

; Function Attrs: mustprogress nounwind uwtable
define linkonce_odr hidden noundef nonnull align 8 dereferenceable(8) ptr @_ZNK6casadi6MXNode8sparsityEv(ptr noundef nonnull align 8 dereferenceable(64) %0) #7 comdat align 2 {
  %2 = alloca ptr, align 8
  store ptr %0, ptr %2, align 8, !tbaa !66
  %3 = load ptr, ptr %2, align 8
  %4 = getelementptr inbounds nuw %"class.casadi::MXNode", ptr %3, i32 0, i32 3
  ret ptr %4
}

; Function Attrs: mustprogress uwtable
define noundef i32 @_ZNK6casadi10HorzRepsum10sp_forwardEPPKyPPyPxS4_(ptr noundef nonnull align 8 dereferenceable(72) %0, ptr noundef %1, ptr noundef %2, ptr noundef %3, ptr noundef %4) unnamed_addr #4 align 2 {
  %6 = alloca ptr, align 8
  %7 = alloca ptr, align 8
  %8 = alloca ptr, align 8
  %9 = alloca ptr, align 8
  %10 = alloca ptr, align 8
  %11 = alloca i64, align 8
  %12 = alloca i32, align 4
  store ptr %0, ptr %6, align 8, !tbaa !99
  store ptr %1, ptr %7, align 8, !tbaa !60
  store ptr %2, ptr %8, align 8, !tbaa !60
  store ptr %3, ptr %9, align 8, !tbaa !46
  store ptr %4, ptr %10, align 8, !tbaa !46
  %13 = load ptr, ptr %6, align 8
  call void @llvm.lifetime.start.p0(i64 8, ptr %11) #3
  %14 = call noundef nonnull align 8 dereferenceable(8) ptr @_ZNK6casadi6MXNode8sparsityEv(ptr noundef nonnull align 8 dereferenceable(64) %13)
  %15 = call noundef i64 @_ZNK6casadi8Sparsity3nnzEv(ptr noundef nonnull align 8 dereferenceable(8) %14)
  store i64 %15, ptr %11, align 8, !tbaa !10
  %16 = load ptr, ptr %8, align 8, !tbaa !60
  %17 = getelementptr inbounds ptr, ptr %16, i64 0
  %18 = load ptr, ptr %17, align 8, !tbaa !46
  %19 = load ptr, ptr %8, align 8, !tbaa !60
  %20 = getelementptr inbounds ptr, ptr %19, i64 0
  %21 = load ptr, ptr %20, align 8, !tbaa !46
  %22 = load i64, ptr %11, align 8, !tbaa !10
  %23 = getelementptr inbounds i64, ptr %21, i64 %22
  call void @llvm.lifetime.start.p0(i64 4, ptr %12) #3
  store i32 0, ptr %12, align 4, !tbaa !64
  call void @_ZSt4fillIPyiEvT_S1_RKT0_(ptr noundef %18, ptr noundef %23, ptr noundef nonnull align 4 dereferenceable(4) %12)
  call void @llvm.lifetime.end.p0(i64 4, ptr %12) #3
  %24 = load ptr, ptr %7, align 8, !tbaa !60
  %25 = load ptr, ptr %8, align 8, !tbaa !60
  %26 = load ptr, ptr %9, align 8, !tbaa !46
  %27 = load ptr, ptr %10, align 8, !tbaa !46
  %28 = call noundef i32 @_ZNK6casadi10HorzRepsum8eval_genIyPFyyyEEEiPPKT_PPS4_PxS8_T0_(ptr noundef nonnull align 8 dereferenceable(72) %13, ptr noundef %24, ptr noundef %25, ptr noundef %26, ptr noundef %27, ptr noundef @_ZN6casadiL6OrringEyy)
  call void @llvm.lifetime.end.p0(i64 8, ptr %11) #3
  ret i32 %28
}