; Function Attrs: mustprogress uwtable
define noundef i32 @_ZNK6casadi10HorzRepsum10sp_forwardEPPKyPPyPxS4_(ptr noundef nonnull align 8 dereferenceable(72) %0, ptr noundef readonly captures(none) %1, ptr noundef readonly captures(none) %2, ptr readnone captures(none) %3, ptr readnone captures(none) %4) unnamed_addr #3 align 2 {
  %6 = getelementptr inbounds nuw i8, ptr %0, i64 56
  %7 = tail call noundef i64 @_ZNK6casadi8Sparsity3nnzEv(ptr noundef nonnull align 8 dereferenceable(8) %6)
  %.not5.i.i.i = icmp eq i64 %7, 0
  br i1 %.not5.i.i.i, label %_ZSt4fillIPyiEvT_S1_RKT0_.exit, label %.lr.ph.i.i.i.preheader

.lr.ph.i.i.i.preheader:                           ; preds = %5
  %8 = load ptr, ptr %2, align 8, !tbaa !60
  %9 = shl i64 %7, 3
  tail call void @llvm.memset.p0.i64(ptr align 8 %8, i8 0, i64 %9, i1 false), !tbaa !63
  br label %_ZSt4fillIPyiEvT_S1_RKT0_.exit

_ZSt4fillIPyiEvT_S1_RKT0_.exit:                   ; preds = %.lr.ph.i.i.i.preheader, %5
  %10 = tail call noundef i64 @_ZNK6casadi8Sparsity3nnzEv(ptr noundef nonnull align 8 dereferenceable(8) %6)
  %11 = icmp slt i64 %10, 1
  br i1 %11, label %_ZSt6fill_nIPyxiET_S1_T0_RKT1_.exit.i, label %.lr.ph.i.i.i.i.i

.lr.ph.i.i.i.i.i:                                 ; preds = %_ZSt4fillIPyiEvT_S1_RKT0_.exit
  %12 = load ptr, ptr %2, align 8, !tbaa !60
  %13 = shl i64 %10, 3
  tail call void @llvm.memset.p0.i64(ptr align 8 %12, i8 0, i64 %13, i1 false), !tbaa !63
  br label %_ZSt6fill_nIPyxiET_S1_T0_RKT1_.exit.i

_ZSt6fill_nIPyxiET_S1_T0_RKT1_.exit.i:            ; preds = %.lr.ph.i.i.i.i.i, %_ZSt4fillIPyiEvT_S1_RKT0_.exit
  %14 = getelementptr inbounds nuw i8, ptr %0, i64 64
  %15 = load i64, ptr %14, align 8, !tbaa !113
  %16 = icmp slt i64 %15, 1
  %.not12.i.i = icmp eq i64 %10, 0
  %or.cond.i = or i1 %.not12.i.i, %16
  br i1 %or.cond.i, label %_ZNK6casadi10HorzRepsum8eval_genIyPFyyyEEEiPPKT_PPS4_PxS8_T0_.exit, label %.lr.ph.i.preheader.i.preheader

.lr.ph.i.preheader.i.preheader:                   ; preds = %_ZSt6fill_nIPyxiET_S1_T0_RKT1_.exit.i
  %17 = load ptr, ptr %1, align 8, !tbaa !60
  %18 = load ptr, ptr %2, align 8, !tbaa !60
  br label %.lr.ph.i.preheader.i

.lr.ph.i.preheader.i:                             ; preds = %.lr.ph.i.preheader.i.preheader, %_ZSt9transformIPKyPyS2_PFyyyEET1_T_S6_T0_S5_T2_.exit.loopexit.i
  %.013.i = phi i64 [ %21, %_ZSt9transformIPKyPyS2_PFyyyEET1_T_S6_T0_S5_T2_.exit.loopexit.i ], [ 0, %.lr.ph.i.preheader.i.preheader ]
  %19 = mul nsw i64 %.013.i, %10
  %20 = getelementptr inbounds i64, ptr %17, i64 %19
  %21 = add nuw nsw i64 %.013.i, 1
  %22 = mul nsw i64 %21, %10
  %23 = getelementptr inbounds i64, ptr %17, i64 %22
  br label %.lr.ph.i.i

.lr.ph.i.i:                                       ; preds = %.lr.ph.i.i, %.lr.ph.i.preheader.i
  %.015.i.i = phi ptr [ %27, %.lr.ph.i.i ], [ %20, %.lr.ph.i.preheader.i ]
  %.01014.i.i = phi ptr [ %28, %.lr.ph.i.i ], [ %18, %.lr.ph.i.preheader.i ]
  %24 = load i64, ptr %.015.i.i, align 8, !tbaa !63
  %25 = load i64, ptr %.01014.i.i, align 8, !tbaa !63
  %26 = or i64 %25, %24
  store i64 %26, ptr %.01014.i.i, align 8, !tbaa !63
  %27 = getelementptr inbounds nuw i8, ptr %.015.i.i, i64 8
  %28 = getelementptr i8, ptr %.01014.i.i, i64 8
  %.not.i.i = icmp eq ptr %27, %23
  br i1 %.not.i.i, label %_ZSt9transformIPKyPyS2_PFyyyEET1_T_S6_T0_S5_T2_.exit.loopexit.i, label %.lr.ph.i.i, !llvm.loop !143

_ZSt9transformIPKyPyS2_PFyyyEET1_T_S6_T0_S5_T2_.exit.loopexit.i: ; preds = %.lr.ph.i.i
  %29 = load i64, ptr %14, align 8, !tbaa !113
  %30 = icmp slt i64 %21, %29
  br i1 %30, label %.lr.ph.i.preheader.i, label %_ZNK6casadi10HorzRepsum8eval_genIyPFyyyEEEiPPKT_PPS4_PxS8_T0_.exit, !llvm.loop !144

_ZNK6casadi10HorzRepsum8eval_genIyPFyyyEEEiPPKT_PPS4_PxS8_T0_.exit: ; preds = %_ZSt9transformIPKyPyS2_PFyyyEET1_T_S6_T0_S5_T2_.exit.loopexit.i, %_ZSt6fill_nIPyxiET_S1_T0_RKT1_.exit.i
  ret i32 0
}